; Function Attrs: mustprogress uwtable
define hidden noundef ptr @pj_eck6(ptr noundef %0) local_unnamed_addr #0 {
  %.not = icmp eq ptr %0, null
  br i1 %.not, label %17, label %2

2:                                                ; preds = %1
  %3 = tail call noalias dereferenceable_or_null(40) ptr @calloc(i64 noundef 1, i64 noundef 40) #6
  %4 = icmp eq ptr %3, null
  br i1 %4, label %5, label %7

5:                                                ; preds = %2
  %6 = tail call noundef ptr @_Z21pj_default_destructorP8PJconstsi(ptr noundef nonnull %0, i32 noundef 4096)
  br label %_Z33pj_projection_specific_setup_eck6P8PJconsts.exit

7:                                                ; preds = %2
  %8 = getelementptr inbounds nuw i8, ptr %0, i64 88
  store ptr %3, ptr %8, align 8, !tbaa !40
  %9 = getelementptr inbounds nuw i8, ptr %0, i64 152
  store ptr @_ZL21pj_gn_sinu_destructorP8PJconstsi, ptr %9, align 8, !tbaa !41
  %10 = getelementptr inbounds nuw i8, ptr %3, i64 8
  store double 1.000000e+00, ptr %10, align 8, !tbaa !50
  %11 = getelementptr inbounds nuw i8, ptr %3, i64 16
  store double 0x400490FDAA22168C, ptr %11, align 8, !tbaa !49
  %12 = getelementptr inbounds nuw i8, ptr %0, i64 216
  store double 0.000000e+00, ptr %12, align 8, !tbaa !46
  %13 = getelementptr inbounds nuw i8, ptr %0, i64 112
  store ptr @_ZL17gn_sinu_s_inverse5PJ_XYP8PJconsts, ptr %13, align 8, !tbaa !47
  %14 = getelementptr inbounds nuw i8, ptr %0, i64 104
  store ptr @_ZL17gn_sinu_s_forward5PJ_LPP8PJconsts, ptr %14, align 8, !tbaa !48
  %15 = getelementptr inbounds nuw i8, ptr %3, i64 32
  store double 0x3FEC398DA1EB377F, ptr %15, align 8, !tbaa !52
  %16 = getelementptr inbounds nuw i8, ptr %3, i64 24
  store double 0x3FDC398DA1EB377F, ptr %16, align 8, !tbaa !53
  br label %_Z33pj_projection_specific_setup_eck6P8PJconsts.exit

17:                                               ; preds = %1
  %18 = tail call noundef ptr @_Z6pj_newv()
  %19 = icmp eq ptr %18, null
  br i1 %19, label %_Z33pj_projection_specific_setup_eck6P8PJconsts.exit, label %20

20:                                               ; preds = %17
  %21 = getelementptr inbounds nuw i8, ptr %18, i64 8
  store ptr @.str.1, ptr %21, align 8, !tbaa !3
  %22 = getelementptr inbounds nuw i8, ptr %18, i64 16
  store ptr @_ZL8des_eck6, ptr %22, align 8, !tbaa !36
  %23 = getelementptr inbounds nuw i8, ptr %18, i64 360
  store i32 1, ptr %23, align 8, !tbaa !37
  %24 = getelementptr inbounds nuw i8, ptr %18, i64 380
  store i32 4, ptr %24, align 4, !tbaa !38
  %25 = getelementptr inbounds nuw i8, ptr %18, i64 384
  store i32 1, ptr %25, align 8, !tbaa !39
  br label %_Z33pj_projection_specific_setup_eck6P8PJconsts.exit

_Z33pj_projection_specific_setup_eck6P8PJconsts.exit: ; preds = %7, %5, %17, %20
  %.0 = phi ptr [ %18, %20 ], [ null, %17 ], [ %6, %5 ], [ %0, %7 ]
  ret ptr %.0
}